target datalayout = "e-m:e-p270:32:32-p271:32:32-p272:64:64-i64:64-i128:128-f80:128-n8:16:32:64-S128"
target triple = "x86_64-pc-linux-gnu"

%struct.H5D_chk_idx_info_t = type { ptr, ptr, ptr, ptr }
%struct.H5O_storage_chunk_t = type { i32, i64, ptr, %union.anon.4 }
%union.anon.4 = type { %struct.H5O_storage_chunk_btree_t }
%struct.H5O_storage_chunk_btree_t = type { i64, ptr }
%struct.H5O_storage_chunk_farray_t = type { i64, ptr }
%struct.H5FA_stat_t = type { i64, i64, i64 }

@.str.2 = private unnamed_addr constant [103 x i8] c"generated/home/dtcxzyw/WorkSpace/Projects/compilers/llvm-opt-benchmark/bench/hdf5/hdf5/src/H5Dfarray.c\00", align 1
@H5E_DATASET_g = external global i64, align 8
@H5E_CANTOPENOBJ_g = external global i64, align 8
@H5E_CANTGET_g = external global i64, align 8
@H5E_CANTCLOSEOBJ_g = external global i64, align 8
@.str.20 = private unnamed_addr constant [23 x i8] c"can't open fixed array\00", align 1
@__func__.H5D__farray_idx_close = private unnamed_addr constant [22 x i8] c"H5D__farray_idx_close\00", align 1
@.str.21 = private unnamed_addr constant [28 x i8] c"unable to close fixed array\00", align 1
@.str.29 = private unnamed_addr constant [35 x i8] c"can't query fixed array statistics\00", align 1
@__func__.H5D__farray_idx_size = private unnamed_addr constant [21 x i8] c"H5D__farray_idx_size\00", align 1

; Function Attrs: nounwind uwtable
define internal i32 @H5D__farray_idx_close(ptr noundef %0) #0 {
  %2 = alloca ptr, align 8
  %3 = alloca i32, align 4
  %4 = alloca i8, align 1
  store ptr %0, ptr %2, align 8
  store i32 0, ptr %3, align 4
  store i8 0, ptr %4, align 1
  %5 = load ptr, ptr %2, align 8
  %6 = getelementptr inbounds %struct.H5D_chk_idx_info_t, ptr %5, i32 0, i32 3
  %7 = load ptr, ptr %6, align 8
  %8 = getelementptr inbounds %struct.H5O_storage_chunk_t, ptr %7, i32 0, i32 3
  %9 = getelementptr inbounds %struct.H5O_storage_chunk_farray_t, ptr %8, i32 0, i32 1
  %10 = load ptr, ptr %9, align 8
  %11 = call i32 @H5FA_close(ptr noundef %10)
  %12 = icmp slt i32 %11, 0
  br i1 %12, label %13, label %28

13:                                               ; preds = %1
  br label %14

14:                                               ; preds = %13
  br label %15

15:                                               ; preds = %14
  br label %16

16:                                               ; preds = %15
  %17 = load i64, ptr @H5E_DATASET_g, align 8
  %18 = load i64, ptr @H5E_CANTCLOSEOBJ_g, align 8
  %19 = call i32 (ptr, ptr, i32, i64, i64, ptr, ...) @H5E_printf_stack(ptr noundef @.str.2, ptr noundef @__func__.H5D__farray_idx_close, i32 noundef 888, i64 noundef %17, i64 noundef %18, ptr noundef @.str.21)
  br label %20

20:                                               ; preds = %16
  store i8 1, ptr %4, align 1
  %21 = load i8, ptr %4, align 1
  %22 = trunc i8 %21 to i1
  %23 = zext i1 %22 to i8
  store i8 %23, ptr %4, align 1
  br label %24

24:                                               ; preds = %20
  br label %25

25:                                               ; preds = %24
  store i32 -1, ptr %3, align 4
  br label %34

26:                                               ; No predecessors!
  br label %27

27:                                               ; preds = %26
  br label %28

28:                                               ; preds = %27, %1
  %29 = load ptr, ptr %2, align 8
  %30 = getelementptr inbounds %struct.H5D_chk_idx_info_t, ptr %29, i32 0, i32 3
  %31 = load ptr, ptr %30, align 8
  %32 = getelementptr inbounds %struct.H5O_storage_chunk_t, ptr %31, i32 0, i32 3
  %33 = getelementptr inbounds %struct.H5O_storage_chunk_farray_t, ptr %32, i32 0, i32 1
  store ptr null, ptr %33, align 8
  br label %34

34:                                               ; preds = %28, %25
  %35 = load i32, ptr %3, align 4
  ret i32 %35
}

; Function Attrs: nounwind uwtable
define internal i32 @H5D__farray_idx_size(ptr noundef %0, ptr noundef %1) #0 {
  %3 = alloca ptr, align 8
  %4 = alloca ptr, align 8
  %5 = alloca ptr, align 8
  %6 = alloca %struct.H5FA_stat_t, align 8
  %7 = alloca i32, align 4
  %8 = alloca i8, align 1
  store ptr %0, ptr %3, align 8
  store ptr %1, ptr %4, align 8
  store i32 0, ptr %7, align 4
  store i8 0, ptr %8, align 1
  %9 = load ptr, ptr %3, align 8
  %10 = call i32 @H5D__farray_idx_open(ptr noundef %9)
  %11 = icmp slt i32 %10, 0
  br i1 %11, label %12, label %27

12:                                               ; preds = %2
  br label %13

13:                                               ; preds = %12
  br label %14

14:                                               ; preds = %13
  br label %15

15:                                               ; preds = %14
  %16 = load i64, ptr @H5E_DATASET_g, align 8
  %17 = load i64, ptr @H5E_CANTOPENOBJ_g, align 8
  %18 = call i32 (ptr, ptr, i32, i64, i64, ptr, ...) @H5E_printf_stack(ptr noundef @.str.2, ptr noundef @__func__.H5D__farray_idx_size, i32 noundef 1546, i64 noundef %16, i64 noundef %17, ptr noundef @.str.20)
  br label %19

19:                                               ; preds = %15
  store i8 1, ptr %8, align 1
  %20 = load i8, ptr %8, align 1
  %21 = trunc i8 %20 to i1
  %22 = zext i1 %21 to i8
  store i8 %22, ptr %8, align 1
  br label %23

23:                                               ; preds = %19
  br label %24

24:                                               ; preds = %23
  store i32 -1, ptr %7, align 4
  br label %61

25:                                               ; No predecessors!
  br label %26

26:                                               ; preds = %25
  br label %27

27:                                               ; preds = %26, %2
  %28 = load ptr, ptr %3, align 8
  %29 = getelementptr inbounds %struct.H5D_chk_idx_info_t, ptr %28, i32 0, i32 3
  %30 = load ptr, ptr %29, align 8
  %31 = getelementptr inbounds %struct.H5O_storage_chunk_t, ptr %30, i32 0, i32 3
  %32 = getelementptr inbounds %struct.H5O_storage_chunk_farray_t, ptr %31, i32 0, i32 1
  %33 = load ptr, ptr %32, align 8
  store ptr %33, ptr %5, align 8
  %34 = load ptr, ptr %5, align 8
  %35 = call i32 @H5FA_get_stats(ptr noundef %34, ptr noundef %6)
  %36 = icmp slt i32 %35, 0
  br i1 %36, label %37, label %52

37:                                               ; preds = %27
  br label %38

38:                                               ; preds = %37
  br label %39

39:                                               ; preds = %38
  br label %40

40:                                               ; preds = %39
  %41 = load i64, ptr @H5E_DATASET_g, align 8
  %42 = load i64, ptr @H5E_CANTGET_g, align 8
  %43 = call i32 (ptr, ptr, i32, i64, i64, ptr, ...) @H5E_printf_stack(ptr noundef @.str.2, ptr noundef @__func__.H5D__farray_idx_size, i32 noundef 1553, i64 noundef %41, i64 noundef %42, ptr noundef @.str.29)
  br label %44

44:                                               ; preds = %40
  store i8 1, ptr %8, align 1
  %45 = load i8, ptr %8, align 1
  %46 = trunc i8 %45 to i1
  %47 = zext i1 %46 to i8
  store i8 %47, ptr %8, align 1
  br label %48

48:                                               ; preds = %44
  br label %49

49:                                               ; preds = %48
  store i32 -1, ptr %7, align 4
  br label %61

50:                                               ; No predecessors!
  br label %51

51:                                               ; preds = %50
  br label %52

52:                                               ; preds = %51, %27
  %53 = getelementptr inbounds %struct.H5FA_stat_t, ptr %6, i32 0, i32 0
  %54 = load i64, ptr %53, align 8
  %55 = load ptr, ptr %4, align 8
  store i64 %54, ptr %55, align 8
  %56 = getelementptr inbounds %struct.H5FA_stat_t, ptr %6, i32 0, i32 1
  %57 = load i64, ptr %56, align 8
  %58 = load ptr, ptr %4, align 8
  %59 = load i64, ptr %58, align 8
  %60 = add i64 %59, %57
  store i64 %60, ptr %58, align 8
  br label %61

61:                                               ; preds = %52, %49, %24
  %62 = load ptr, ptr %3, align 8
  %63 = getelementptr inbounds %struct.H5D_chk_idx_info_t, ptr %62, i32 0, i32 3
  %64 = load ptr, ptr %63, align 8
  %65 = getelementptr inbounds %struct.H5O_storage_chunk_t, ptr %64, i32 0, i32 3
  %66 = getelementptr inbounds %struct.H5O_storage_chunk_farray_t, ptr %65, i32 0, i32 1
  %67 = load ptr, ptr %66, align 8
  %68 = icmp ne ptr %67, null
  br i1 %68, label %69, label %87

69:                                               ; preds = %61
  %70 = load ptr, ptr %3, align 8
  %71 = call i32 @H5D__farray_idx_close(ptr noundef %70)
  %72 = icmp slt i32 %71, 0
  br i1 %72, label %73, label %86

73:                                               ; preds = %69
  br label %74

74:                                               ; preds = %73
  br label %75

75:                                               ; preds = %74
  br label %76

76:                                               ; preds = %75
  %77 = load i64, ptr @H5E_DATASET_g, align 8
  %78 = load i64, ptr @H5E_CANTCLOSEOBJ_g, align 8
  %79 = call i32 (ptr, ptr, i32, i64, i64, ptr, ...) @H5E_printf_stack(ptr noundef @.str.2, ptr noundef @__func__.H5D__farray_idx_size, i32 noundef 1561, i64 noundef %77, i64 noundef %78, ptr noundef @.str.21)
  br label %80

80:                                               ; preds = %76
  store i8 1, ptr %8, align 1
  %81 = load i8, ptr %8, align 1
  %82 = trunc i8 %81 to i1
  %83 = zext i1 %82 to i8
  store i8 %83, ptr %8, align 1
  br label %84

84:                                               ; preds = %80
  store i32 -1, ptr %7, align 4
  br label %85

85:                                               ; preds = %84
  br label %86

86:                                               ; preds = %85, %69
  br label %87

87:                                               ; preds = %86, %61
  %88 = load i32, ptr %7, align 4
  ret i32 %88
}