; Function Attrs: nounwind uwtable
define internal range(i32 -1, 1) i32 @H5D__farray_idx_size(ptr nocapture noundef readonly %0, ptr nocapture noundef writeonly %1) #1 {
  %3 = alloca %struct.H5FA_stat_t, align 8
  %4 = tail call i32 @H5D__farray_idx_open(ptr noundef %0)
  %5 = icmp slt i32 %4, 0
  br i1 %5, label %6, label %10

6:                                                ; preds = %2
  %7 = load i64, ptr @H5E_DATASET_g, align 8
  %8 = load i64, ptr @H5E_CANTOPENOBJ_g, align 8
  %9 = tail call i32 (ptr, ptr, i32, i64, i64, ptr, ...) @H5E_printf_stack(ptr noundef nonnull @.str.2, ptr noundef nonnull @__func__.H5D__farray_idx_size, i32 noundef 1546, i64 noundef %7, i64 noundef %8, ptr noundef nonnull @.str.20) #11
  br label %26

10:                                               ; preds = %2
  %11 = getelementptr inbounds i8, ptr %0, i64 24
  %12 = load ptr, ptr %11, align 8
  %13 = getelementptr inbounds i8, ptr %12, i64 32
  %14 = load ptr, ptr %13, align 8
  %15 = call i32 @H5FA_get_stats(ptr noundef %14, ptr noundef nonnull %3) #11
  %16 = icmp slt i32 %15, 0
  br i1 %16, label %17, label %21

17:                                               ; preds = %10
  %18 = load i64, ptr @H5E_DATASET_g, align 8
  %19 = load i64, ptr @H5E_CANTGET_g, align 8
  %20 = call i32 (ptr, ptr, i32, i64, i64, ptr, ...) @H5E_printf_stack(ptr noundef nonnull @.str.2, ptr noundef nonnull @__func__.H5D__farray_idx_size, i32 noundef 1553, i64 noundef %18, i64 noundef %19, ptr noundef nonnull @.str.29) #11
  br label %26

21:                                               ; preds = %10
  %22 = load i64, ptr %3, align 8
  %23 = getelementptr inbounds i8, ptr %3, i64 8
  %24 = load i64, ptr %23, align 8
  %25 = add i64 %24, %22
  store i64 %25, ptr %1, align 8
  br label %26

26:                                               ; preds = %21, %17, %6
  %.0 = phi i32 [ -1, %6 ], [ -1, %17 ], [ 0, %21 ]
  %27 = getelementptr inbounds i8, ptr %0, i64 24
  %28 = load ptr, ptr %27, align 8
  %29 = getelementptr inbounds i8, ptr %28, i64 32
  %30 = load ptr, ptr %29, align 8
  %.not = icmp eq ptr %30, null
  br i1 %.not, label %43, label %31

31:                                               ; preds = %26
  %32 = call i32 @H5FA_close(ptr noundef nonnull %30) #11
  %33 = icmp slt i32 %32, 0
  br i1 %33, label %36, label %H5D__farray_idx_close.exit

H5D__farray_idx_close.exit:                       ; preds = %31
  %34 = load ptr, ptr %27, align 8
  %35 = getelementptr inbounds i8, ptr %34, i64 32
  store ptr null, ptr %35, align 8
  br label %43

36:                                               ; preds = %31
  %37 = load i64, ptr @H5E_DATASET_g, align 8
  %38 = load i64, ptr @H5E_CANTCLOSEOBJ_g, align 8
  %39 = call i32 (ptr, ptr, i32, i64, i64, ptr, ...) @H5E_printf_stack(ptr noundef nonnull @.str.2, ptr noundef nonnull @__func__.H5D__farray_idx_close, i32 noundef 888, i64 noundef %37, i64 noundef %38, ptr noundef nonnull @.str.21) #11
  %40 = load i64, ptr @H5E_DATASET_g, align 8
  %41 = load i64, ptr @H5E_CANTCLOSEOBJ_g, align 8
  %42 = call i32 (ptr, ptr, i32, i64, i64, ptr, ...) @H5E_printf_stack(ptr noundef nonnull @.str.2, ptr noundef nonnull @__func__.H5D__farray_idx_size, i32 noundef 1561, i64 noundef %40, i64 noundef %41, ptr noundef nonnull @.str.21) #11
  br label %43

43:                                               ; preds = %H5D__farray_idx_close.exit, %36, %26
  %.1 = phi i32 [ -1, %36 ], [ %.0, %H5D__farray_idx_close.exit ], [ %.0, %26 ]
  ret i32 %.1
}